(lp0
F10.8978542490233
aF10.8767349327508
aF10.8555451275568
aF10.834488793732399
aF10.813558665348401
aF10.7924055815611
aF10.770866039978999
aF10.749057844364
aF10.7270741355251
aF10.704910730827599
aF10.682571920082699
aF10.6602257990972
aF10.637947109139199
aF10.6156511449632
aF10.593051610616399
aF10.5698583957248
aF10.5459373144552
aF10.5212245946539
aF10.495738568031401
aF10.469603054178
aF10.443157068611701
aF10.4169234100638
aF10.3914593949638
aF10.3669946713984
aF10.343595898972399
aF10.3215081392706
aF10.3006881780857
aF10.280791067765801
aF10.2615869068302
aF10.242923621554899
aF10.224571560881801
aF10.2062253499279
aF10.187840337405699
aF10.169457249984699
aF10.1509762725423
aF10.132413933404299
aF10.1138566037544
aF10.0954672640233
aF10.077407754515299
aF10.059675503689199
aF10.0421873496384
aF10.024991605772
aF10.0083840809609
aF9.9927245232216695
aF9.9783562852822101
aF9.9656012789893804
aF9.9544173522729995
aF9.9445023823747096
aF9.9355670373374494
aF9.9274554223016001
aF9.9203929830304496
aF9.91469294202399
aF9.9104471891360806
aF9.9075642003569602
aF9.9059998004326104
aF9.9054960532410306
aF9.90559030328901
aF9.9058069463148897
aF9.9058392953755892
aF9.9056219409920505
aF9.9051918315532497
aF9.9047207216353197
aF9.9042952569658294
aF9.9039589615264205
aF9.90368874886064
aF9.9033749102808297
aF9.9028146047255294
aF9.90185409573537
aF9.9001148002672803
aF9.8969989088716304
aF9.8920066045851804
aF9.8852180703015193
aF9.8770394059562996
aF9.8677429642558998
aF9.8574966859998305
aF9.8464051776515902
aF9.8343773650918092
aF9.8213379353049692
aF9.80725265276679
aF9.7920687798347306
aF9.7756701069356797
aF9.7579238058779705
aF9.7387890538563209
aF9.7185608976098692
aF9.6976785418135094
aF9.6764021237822408
aF9.6549263604873303
aF9.63328729726868
aF9.6113681729804199
aF9.5889416636183498
aF9.5658638701928602
aF9.5419816240501998
aF9.5172873530322093
aF9.4920449707785899
aF9.4667628368335901
aF9.4422337272604899
aF9.4190903645056299
aF9.3979823391785207
aF9.3793320007820906
aF9.3634165624389905
aF9.3504674982923301
aF9.3405147602085901
aF9.3333730911385793
aF9.3288205019449801
aF9.3265943611360598
aF9.3264612173992898
aF9.3281573614545206
aF9.3313135197006201
aF9.3353988882086494
aF9.3398457487718201
aF9.3442935254281494
aF9.3486860542971808
aF9.3530198648569005
aF9.3572306622669892
aF9.3612890330072496
aF9.3651534329946706
aF9.3688709927946707
aF9.3724416389476701
aF9.3759791822763408
aF9.3796137455150195
aF9.3834749423998698
aF9.3874201720126997
aF9.3910718125326405
aF9.3939739721478297
aF9.3958981609427301
aF9.3967075915501095
aF9.3963080269621209
aF9.3946376075943405
aF9.3915898393349195
aF9.3870871738624597
aF9.3812059749197498
aF9.3739593380103603
aF9.3654716169270191
aF9.3559206942708997
aF9.3455198125912808
aF9.3345649245215299
aF9.3232459593353898
aF9.3116953475864204
aF9.3000393696553694
aF9.2884496181849396
aF9.2770949124876694
aF9.2662370427182505
aF9.2562712550375004
aF9.2474869314647403
aF9.2401863124690298
aF9.2346239616350001
aF9.2308099289618308
aF9.2286364394128793
aF9.2280621306099704
aF9.2292895471787997
aF9.2322276760142596
aF9.2365954191540602
aF9.2420125886656805
aF9.2481039450073599
aF9.2548269137766308
aF9.2623776177188297
aF9.2708670917781504
aF9.2802232080117406
aF9.2902697365123501
aF9.3007539096015801
aF9.3113744699527992
aF9.3218241318065598
aF9.3319705139390496
aF9.3419098598351997
aF9.3516205118542395
aF9.3610545983889395
aF9.3700330999850596
aF9.3784054773679593
aF9.3863581465399495
aF9.3941302415480905
aF9.4016839372388397
aF9.4089675896411595
aF9.4157376938564106
aF9.4216675878390408
aF9.4265918302661103
aF9.4304237080296893
aF9.4331548909195
aF9.4346276181244004
aF9.4347344482289905
aF9.4335084773647004
aF9.4312239485094
aF9.4281493185765495
aF9.4244958616665393
aF9.42046040702688
aF9.4162515348807698
aF9.4120147421487808
aF9.40779225045919
aF9.4035945498912508
aF9.3995493376838493
aF9.3958926632140507
aF9.3924927280882695
aF9.3890594033576704
aF9.3852319139895801
aF9.3808017763169396
aF9.3755599506749601
aF9.3694936765587293
aF9.3627309956571505
aF9.3552045772312908
aF9.3469690962684098
aF9.3381396156865701
aF9.3289954538323006
aF9.3199634237653797
aF9.3113737785829702
aF9.3035577650503498
aF9.2968136556211505
aF9.2914973826171003
aF9.2878503686419993
aF9.2859065780859407
aF9.2857108794983692
aF9.2871017111782308
aF9.28983621372093
aF9.2937039328270306
aF9.2987154595381103
aF9.3048883367856305
aF9.3122715318161102
aF9.3207348727427295
aF9.3299386563453695
aF9.3394349515084603
aF9.3488257372563801
aF9.3578573907955498
aF9.3662934670408706
aF9.3741067786721697
aF9.3815106098553809
aF9.3886531555430004
aF9.3956213139618203
aF9.4024185207752708
aF9.4088961587863604
aF9.4147285268435503
aF9.4195919147627603
aF9.42359385545533
aF9.4271769115244606
aF9.4307078758787206
aF9.4343488667283992
aF9.4382497433104806
aF9.44250337081073
aF9.4472225803290009
aF9.4522802911783899
aF9.4574467566340399
aF9.4625397842147496
aF9.4673336437520401
aF9.4716571344283391
aF9.4754073485717107
aF9.4785960000816498
aF9.4811490627930102
aF9.4831402461213994
aF9.4849068593127299
aF9.4868041387217001
aF9.4892655906442904
aF9.4926382068522805
aF9.4972510195984103
aF9.5034583605306793
aF9.5116018482248297
aF9.5217907571487501
aF9.5340995936180395
aF9.5484500143919302
aF9.5645723777034402
aF9.5820224213350098
aF9.6004957838954805
aF9.6195202201664394
aF9.6383605049455401
aF9.6563045661530893
aF9.6731047539524493
aF9.6885839788428498
aF9.7027141932992507
aF9.7157609757780001
aF9.7281431908879608
aF9.7400616232404396
aF9.7516575039519307
aF9.7630213289463104
aF9.7743870464279095
aF9.7860311302928196
aF9.7980098805904401
aF9.8104375792742307
aF9.82343808079208
aF9.8369467830558897
aF9.8509949419177492
aF9.8654902076347195
aF9.8803532668240592
aF9.8955123494501507
aF9.9110012434163295
aF9.9269330835187706
aF9.9433986282837505
aF9.9601612080621091
aF9.9770596847924899
aF9.9938157986363692
aF10.010119236283501
aF10.025477955079101
aF10.0395909399896
aF10.0523347692593
aF10.0637925830985
aF10.073927392680201
aF10.0826916891611
aF10.090069040834001
aF10.0959938660157
aF10.100351822289801
aF10.1030284342798
aF10.1039383082244
aF10.102916212416099
aF10.100002185806201
aF10.0952944964568
aF10.089251036734
aF10.082533631900199
aF10.076011175983499
aF10.070469451162401
aF10.0665955006976
aF10.064965217332199
aF10.0661112425702
aF10.0705694441912
aF10.078449801135299
aF10.0895519205328
aF10.103479761854899
aF10.119783482370501
aF10.137797338650699
aF10.156862502876301
aF10.1766175716505
aF10.1966811175621
aF10.216813934706
aF10.236781759225501
aF10.2564863830207
aF10.2759628007452
aF10.2953518838049
aF10.3147567993705
aF10.334208670490399
aF10.3537757819495
aF10.3734961655618
aF10.393149696972401
aF10.412543474474401
aF10.431583302707301
aF10.4503858291915
aF10.4690359958707
aF10.487532696640899
aF10.5058962562562
aF10.524495419445801
aF10.5437422292118
aF10.5639587086575
aF10.5851917898759
aF10.607504269602099
aF10.6311838065813
aF10.656440317149
aF10.6831564748798
aF10.7112410566717
aF10.740647359505701
aF10.7713068334015
aF10.8027718255828
aF10.834368118704599
aF10.865324305186499
aF10.8952545308405
aF10.923819669860899
aF10.950665716174001
aF10.9756098655028
aF10.998547267088799
aF11.019333881727199
aF11.0376765743801
aF11.053160736274901
aF11.065565235631301
aF11.075300978200501
aF11.0829273367317
aF11.089194385834199
aF11.0950500251669
aF11.1018955883277
aF11.1108615664787
aF11.122460470982199
aF11.136675488003901
aF11.1535547642256
aF11.173073123820201
aF11.195067723898401
aF11.2193383968999
aF11.245712848663301
aF11.2737262863692
aF11.3027855268253
aF11.332250536738799
a.